; Function Attrs: nofree norecurse nosync nounwind memory(read, inaccessiblemem: none) uwtable
define range(i32 1, -2147483648) i32 @Sle_ManComputeDelayCut(ptr noundef readnone captures(none) %0, ptr noundef readonly captures(none) %1, ptr noundef readonly captures(none) %2) local_unnamed_addr #3 {
  %.val10 = load i32, ptr %1, align 4, !tbaa !29
  %4 = and i32 %.val10, 15
  %5 = getelementptr inbounds nuw i8, ptr %1, i64 4
  %.not = icmp eq i32 %4, 0
  br i1 %.not, label %._crit_edge, label %.lr.ph

.lr.ph:                                           ; preds = %3
  %6 = getelementptr i8, ptr %2, i64 8
  %.val = load ptr, ptr %6, align 8, !tbaa !28
  %wide.trip.count = zext nneg i32 %4 to i64
  br label %7

7:                                                ; preds = %.lr.ph, %7
  %indvars.iv = phi i64 [ 0, %.lr.ph ], [ %indvars.iv.next, %7 ]
  %.012 = phi i32 [ 0, %.lr.ph ], [ %13, %7 ]
  %8 = getelementptr inbounds nuw i32, ptr %5, i64 %indvars.iv
  %9 = load i32, ptr %8, align 4, !tbaa !29
  %10 = sext i32 %9 to i64
  %11 = getelementptr inbounds i32, ptr %.val, i64 %10
  %12 = load i32, ptr %11, align 4, !tbaa !29
  %13 = tail call noundef i32 @llvm.smax.i32(i32 %.012, i32 %12)
  %indvars.iv.next = add nuw nsw i64 %indvars.iv, 1
  %exitcond.not = icmp eq i64 %indvars.iv.next, %wide.trip.count
  br i1 %exitcond.not, label %._crit_edge.loopexit, label %7, !llvm.loop !49

._crit_edge.loopexit:                             ; preds = %7
  %14 = add nuw nsw i32 %13, 1
  br label %._crit_edge

._crit_edge:                                      ; preds = %._crit_edge.loopexit, %3
  %.0.lcssa = phi i32 [ 1, %3 ], [ %14, %._crit_edge.loopexit ]
  ret i32 %.0.lcssa
}